target datalayout = "e-m:e-p270:32:32-p271:32:32-p272:64:64-i64:64-i128:128-f80:128-n8:16:32:64-S128"
target triple = "x86_64-pc-linux-gnu"

%struct.ident_t = type { i32, i32, i32, i32, ptr }
%"class.ncnn::Mat" = type { ptr, ptr, i64, i32, ptr, i32, i32, i32, i32, i32, i64 }

@1 = private unnamed_addr constant %struct.ident_t { i32 0, i32 514, i32 0, i32 22, ptr @0 }, align 8

; Function Attrs: alwaysinline mustprogress nounwind uwtable
define linkonce_odr hidden noundef ptr @_ZN4ncnn3Mat3rowEi(ptr noundef nonnull align 8 dereferenceable(72) %0, i32 noundef %1) #7 comdat align 2 {
  %3 = alloca ptr, align 8
  %4 = alloca i32, align 4
  store ptr %0, ptr %3, align 8, !tbaa !4
  store i32 %1, ptr %4, align 4, !tbaa !9
  %5 = load ptr, ptr %3, align 8
  %6 = getelementptr inbounds nuw %"class.ncnn::Mat", ptr %5, i32 0, i32 0
  %7 = load ptr, ptr %6, align 8, !tbaa !54
  %8 = getelementptr inbounds nuw %"class.ncnn::Mat", ptr %5, i32 0, i32 6
  %9 = load i32, ptr %8, align 4, !tbaa !49
  %10 = sext i32 %9 to i64
  %11 = load i32, ptr %4, align 4, !tbaa !9
  %12 = sext i32 %11 to i64
  %13 = mul i64 %10, %12
  %14 = getelementptr inbounds nuw %"class.ncnn::Mat", ptr %5, i32 0, i32 2
  %15 = load i64, ptr %14, align 8, !tbaa !56
  %16 = mul i64 %13, %15
  %17 = getelementptr inbounds nuw i8, ptr %7, i64 %16
  ret ptr %17
}

; Function Attrs: alwaysinline norecurse nounwind uwtable
define internal void @_ZN4ncnnL9lstm_int8ERKNS_3MatES2_RS0_iS2_S2_S2_S2_S3_S3_RKNS_6OptionE.omp_outlined.4(ptr noalias noundef %0, ptr noalias noundef %1, ptr noundef nonnull align 4 dereferenceable(4) %2, ptr noundef nonnull align 4 dereferenceable(4) %3, ptr noundef nonnull align 8 dereferenceable(72) %4, ptr noundef nonnull align 8 dereferenceable(8) %5, ptr noundef nonnull align 4 dereferenceable(4) %6, ptr noundef nonnull align 8 dereferenceable(8) %7, ptr noundef nonnull align 8 dereferenceable(8) %8, ptr noundef nonnull align 8 dereferenceable(8) %9) #19 {
  %11 = alloca ptr, align 8
  %12 = alloca ptr, align 8
  %13 = alloca ptr, align 8
  %14 = alloca ptr, align 8
  %15 = alloca ptr, align 8
  %16 = alloca ptr, align 8
  %17 = alloca ptr, align 8
  %18 = alloca ptr, align 8
  %19 = alloca ptr, align 8
  %20 = alloca ptr, align 8
  %21 = alloca i32, align 4
  %22 = alloca i32, align 4
  %23 = alloca i32, align 4
  %24 = alloca i32, align 4
  %25 = alloca i32, align 4
  %26 = alloca i32, align 4
  %27 = alloca i32, align 4
  %28 = alloca i32, align 4
  %29 = alloca i32, align 4
  %30 = alloca i32, align 4
  %31 = alloca ptr, align 8
  %32 = alloca float, align 4
  %33 = alloca float, align 4
  %34 = alloca float, align 4
  %35 = alloca float, align 4
  %36 = alloca float, align 4
  %37 = alloca float, align 4
  store ptr %0, ptr %11, align 8, !tbaa !17
  store ptr %1, ptr %12, align 8, !tbaa !17
  store ptr %2, ptr %13, align 8, !tbaa !17
  store ptr %3, ptr %14, align 8, !tbaa !17
  store ptr %4, ptr %15, align 8, !tbaa !4
  store ptr %5, ptr %16, align 8, !tbaa !107
  store ptr %6, ptr %17, align 8, !tbaa !17
  store ptr %7, ptr %18, align 8, !tbaa !107
  store ptr %8, ptr %19, align 8, !tbaa !107
  store ptr %9, ptr %20, align 8, !tbaa !107
  %38 = load ptr, ptr %13, align 8, !tbaa !17
  %39 = load ptr, ptr %14, align 8, !tbaa !17
  %40 = load ptr, ptr %15, align 8, !tbaa !4
  %41 = load ptr, ptr %16, align 8, !tbaa !107
  %42 = load ptr, ptr %17, align 8, !tbaa !17
  %43 = load ptr, ptr %18, align 8, !tbaa !107
  %44 = load ptr, ptr %19, align 8, !tbaa !107
  %45 = load ptr, ptr %20, align 8, !tbaa !107
  call void @llvm.lifetime.start.p0(i64 4, ptr %21) #4
  call void @llvm.lifetime.start.p0(i64 4, ptr %22) #4
  %46 = load i32, ptr %39, align 4, !tbaa !9
  store i32 %46, ptr %22, align 4, !tbaa !9
  call void @llvm.lifetime.start.p0(i64 4, ptr %23) #4
  %47 = load i32, ptr %38, align 4, !tbaa !9
  store i32 %47, ptr %23, align 4, !tbaa !9
  call void @llvm.lifetime.start.p0(i64 4, ptr %24) #4
  %48 = load i32, ptr %23, align 4, !tbaa !9
  %49 = load i32, ptr %22, align 4, !tbaa !9
  %50 = sub i32 %48, %49
  %51 = sub i32 %50, 1
  %52 = add i32 %51, 1
  %53 = udiv i32 %52, 1
  %54 = sub i32 %53, 1
  store i32 %54, ptr %24, align 4, !tbaa !9
  call void @llvm.lifetime.start.p0(i64 4, ptr %25) #4
  %55 = load i32, ptr %22, align 4, !tbaa !9
  store i32 %55, ptr %25, align 4, !tbaa !9
  call void @llvm.lifetime.end.p0(i64 4, ptr %25) #4
  %56 = load i32, ptr %22, align 4, !tbaa !9
  %57 = load i32, ptr %23, align 4, !tbaa !9
  %58 = icmp slt i32 %56, %57
  br i1 %58, label %59, label %164

59:                                               ; preds = %10
  call void @llvm.lifetime.start.p0(i64 4, ptr %26) #4
  store i32 0, ptr %26, align 4, !tbaa !9
  call void @llvm.lifetime.start.p0(i64 4, ptr %27) #4
  %60 = load i32, ptr %24, align 4, !tbaa !9
  store i32 %60, ptr %27, align 4, !tbaa !9
  call void @llvm.lifetime.start.p0(i64 4, ptr %28) #4
  store i32 1, ptr %28, align 4, !tbaa !9
  call void @llvm.lifetime.start.p0(i64 4, ptr %29) #4
  store i32 0, ptr %29, align 4, !tbaa !9
  call void @llvm.lifetime.start.p0(i64 4, ptr %30) #4
  %61 = load ptr, ptr %11, align 8
  %62 = load i32, ptr %61, align 4, !tbaa !9
  call void @__kmpc_for_static_init_4u(ptr @1, i32 %62, i32 34, ptr %29, ptr %26, ptr %27, ptr %28, i32 1, i32 1)
  %63 = load i32, ptr %27, align 4, !tbaa !9
  %64 = load i32, ptr %24, align 4, !tbaa !9
  %65 = icmp ugt i32 %63, %64
  br i1 %65, label %66, label %68

66:                                               ; preds = %59
  %67 = load i32, ptr %24, align 4, !tbaa !9
  br label %70

68:                                               ; preds = %59
  %69 = load i32, ptr %27, align 4, !tbaa !9
  br label %70

70:                                               ; preds = %68, %66
  %71 = phi i32 [ %67, %66 ], [ %69, %68 ]
  store i32 %71, ptr %27, align 4, !tbaa !9
  %72 = load i32, ptr %26, align 4, !tbaa !9
  store i32 %72, ptr %21, align 4, !tbaa !9
  br label %73

73:                                               ; preds = %157, %70
  %74 = load i32, ptr %21, align 4, !tbaa !9
  %75 = load i32, ptr %27, align 4, !tbaa !9
  %76 = add i32 %75, 1
  %77 = icmp ult i32 %74, %76
  br i1 %77, label %79, label %78

78:                                               ; preds = %73
  br label %160

79:                                               ; preds = %73
  %80 = load i32, ptr %22, align 4, !tbaa !9
  %81 = load i32, ptr %21, align 4, !tbaa !9
  %82 = mul i32 %81, 1
  %83 = add i32 %80, %82
  store i32 %83, ptr %30, align 4, !tbaa !9
  call void @llvm.lifetime.start.p0(i64 8, ptr %31) #4
  %84 = load i32, ptr %30, align 4, !tbaa !9
  %85 = call noundef ptr @_ZN4ncnn3Mat3rowEi(ptr noundef nonnull align 8 dereferenceable(72) %40, i32 noundef %84)
  store ptr %85, ptr %31, align 8, !tbaa !19
  call void @llvm.lifetime.start.p0(i64 4, ptr %32) #4
  %86 = load ptr, ptr %31, align 8, !tbaa !19
  %87 = getelementptr inbounds float, ptr %86, i64 0
  %88 = load float, ptr %87, align 4, !tbaa !21
  store float %88, ptr %32, align 4, !tbaa !21
  call void @llvm.lifetime.start.p0(i64 4, ptr %33) #4
  %89 = load ptr, ptr %31, align 8, !tbaa !19
  %90 = getelementptr inbounds float, ptr %89, i64 1
  %91 = load float, ptr %90, align 4, !tbaa !21
  store float %91, ptr %33, align 4, !tbaa !21
  call void @llvm.lifetime.start.p0(i64 4, ptr %34) #4
  %92 = load ptr, ptr %31, align 8, !tbaa !19
  %93 = getelementptr inbounds float, ptr %92, i64 2
  %94 = load float, ptr %93, align 4, !tbaa !21
  store float %94, ptr %34, align 4, !tbaa !21
  call void @llvm.lifetime.start.p0(i64 4, ptr %35) #4
  %95 = load ptr, ptr %31, align 8, !tbaa !19
  %96 = getelementptr inbounds float, ptr %95, i64 3
  %97 = load float, ptr %96, align 4, !tbaa !21
  store float %97, ptr %35, align 4, !tbaa !21
  %98 = load float, ptr %32, align 4, !tbaa !21
  %99 = fneg fast float %98
  %100 = call fast float @llvm.exp.f32(float %99)
  %101 = fadd fast float 1.000000e+00, %100
  %102 = fdiv fast float 1.000000e+00, %101
  store float %102, ptr %32, align 4, !tbaa !21
  %103 = load float, ptr %33, align 4, !tbaa !21
  %104 = fneg fast float %103
  %105 = call fast float @llvm.exp.f32(float %104)
  %106 = fadd fast float 1.000000e+00, %105
  %107 = fdiv fast float 1.000000e+00, %106
  store float %107, ptr %33, align 4, !tbaa !21
  %108 = load float, ptr %34, align 4, !tbaa !21
  %109 = fneg fast float %108
  %110 = call fast float @llvm.exp.f32(float %109)
  %111 = fadd fast float 1.000000e+00, %110
  %112 = fdiv fast float 1.000000e+00, %111
  store float %112, ptr %34, align 4, !tbaa !21
  %113 = load float, ptr %35, align 4, !tbaa !21
  %114 = call fast float @llvm.tanh.f32(float %113)
  store float %114, ptr %35, align 4, !tbaa !21
  call void @llvm.lifetime.start.p0(i64 4, ptr %36) #4
  %115 = load float, ptr %33, align 4, !tbaa !21
  %116 = load ptr, ptr %41, align 8, !tbaa !19
  %117 = load i32, ptr %30, align 4, !tbaa !9
  %118 = sext i32 %117 to i64
  %119 = getelementptr inbounds float, ptr %116, i64 %118
  %120 = load float, ptr %119, align 4, !tbaa !21
  %121 = fmul fast float %115, %120
  %122 = load float, ptr %32, align 4, !tbaa !21
  %123 = load float, ptr %35, align 4, !tbaa !21
  %124 = fmul fast float %122, %123
  %125 = fadd fast float %121, %124
  store float %125, ptr %36, align 4, !tbaa !21
  call void @llvm.lifetime.start.p0(i64 4, ptr %37) #4
  %126 = load float, ptr %34, align 4, !tbaa !21
  %127 = load float, ptr %36, align 4, !tbaa !21
  %128 = call fast float @llvm.tanh.f32(float %127)
  %129 = fmul fast float %126, %128
  store float %129, ptr %37, align 4, !tbaa !21
  %130 = load float, ptr %36, align 4, !tbaa !21
  %131 = load ptr, ptr %41, align 8, !tbaa !19
  %132 = load i32, ptr %30, align 4, !tbaa !9
  %133 = sext i32 %132 to i64
  %134 = getelementptr inbounds float, ptr %131, i64 %133
  store float %130, ptr %134, align 4, !tbaa !21
  %135 = load i32, ptr %42, align 4, !tbaa !9
  %136 = load i32, ptr %38, align 4, !tbaa !9
  %137 = icmp eq i32 %135, %136
  br i1 %137, label %138, label %149

138:                                              ; preds = %79
  %139 = load float, ptr %37, align 4, !tbaa !21
  %140 = load ptr, ptr %43, align 8, !tbaa !19
  %141 = load i32, ptr %30, align 4, !tbaa !9
  %142 = sext i32 %141 to i64
  %143 = getelementptr inbounds float, ptr %140, i64 %142
  store float %139, ptr %143, align 4, !tbaa !21
  %144 = load float, ptr %37, align 4, !tbaa !21
  %145 = load ptr, ptr %44, align 8, !tbaa !19
  %146 = load i32, ptr %30, align 4, !tbaa !9
  %147 = sext i32 %146 to i64
  %148 = getelementptr inbounds float, ptr %145, i64 %147
  store float %144, ptr %148, align 4, !tbaa !21
  br label %155

149:                                              ; preds = %79
  %150 = load float, ptr %37, align 4, !tbaa !21
  %151 = load ptr, ptr %45, align 8, !tbaa !19
  %152 = load i32, ptr %30, align 4, !tbaa !9
  %153 = sext i32 %152 to i64
  %154 = getelementptr inbounds float, ptr %151, i64 %153
  store float %150, ptr %154, align 4, !tbaa !21
  br label %155

155:                                              ; preds = %149, %138
  call void @llvm.lifetime.end.p0(i64 4, ptr %37) #4
  call void @llvm.lifetime.end.p0(i64 4, ptr %36) #4
  call void @llvm.lifetime.end.p0(i64 4, ptr %35) #4
  call void @llvm.lifetime.end.p0(i64 4, ptr %34) #4
  call void @llvm.lifetime.end.p0(i64 4, ptr %33) #4
  call void @llvm.lifetime.end.p0(i64 4, ptr %32) #4
  call void @llvm.lifetime.end.p0(i64 8, ptr %31) #4
  br label %156

156:                                              ; preds = %155
  br label %157

157:                                              ; preds = %156
  %158 = load i32, ptr %21, align 4, !tbaa !9
  %159 = add i32 %158, 1
  store i32 %159, ptr %21, align 4, !tbaa !9
  br label %73

160:                                              ; preds = %78
  br label %161

161:                                              ; preds = %160
  %162 = load ptr, ptr %11, align 8
  %163 = load i32, ptr %162, align 4, !tbaa !9
  call void @__kmpc_for_static_fini(ptr @1, i32 %163)
  call void @llvm.lifetime.end.p0(i64 4, ptr %30) #4
  call void @llvm.lifetime.end.p0(i64 4, ptr %29) #4
  call void @llvm.lifetime.end.p0(i64 4, ptr %28) #4
  call void @llvm.lifetime.end.p0(i64 4, ptr %27) #4
  call void @llvm.lifetime.end.p0(i64 4, ptr %26) #4
  br label %164

164:                                              ; preds = %161, %10
  call void @llvm.lifetime.end.p0(i64 4, ptr %24) #4
  call void @llvm.lifetime.end.p0(i64 4, ptr %23) #4
  call void @llvm.lifetime.end.p0(i64 4, ptr %22) #4
  call void @llvm.lifetime.end.p0(i64 4, ptr %21) #4
  ret void
}